; Function Attrs: mustprogress nofree norecurse nosync nounwind willreturn memory(readwrite, inaccessiblemem: none) uwtable
define void @_ZN3gmx21SurfaceAreaCalculator20setCalculateAtomAreaEb(ptr noundef nonnull readonly align 8 captures(none) dereferenceable(8) %0, i1 noundef zeroext %1) local_unnamed_addr #11 align 2 {
  %3 = load ptr, ptr %0, align 8, !tbaa !11
  %4 = getelementptr inbounds nuw i8, ptr %3, i64 40
  %5 = load i32, ptr %4, align 8, !tbaa !56
  %6 = and i32 %5, -5
  %masksel = select i1 %1, i32 4, i32 0
  %.sink = or disjoint i32 %6, %masksel
  store i32 %.sink, ptr %4, align 8, !tbaa !56
  ret void
}